target datalayout = "e-m:e-p270:32:32-p271:32:32-p272:64:64-i64:64-i128:128-f80:128-n8:16:32:64-S128"
target triple = "x86_64-pc-linux-gnu"

%struct.darktable_t = type { %struct.dt_codepath_t, i32, i32, ptr, ptr, ptr, ptr, ptr, ptr, ptr, ptr, ptr, ptr, ptr, ptr, ptr, ptr, ptr, ptr, ptr, ptr, ptr, ptr, ptr, ptr, ptr, ptr, ptr, ptr, ptr, [64 x %struct.dt_pthread_mutex_t], %struct.dt_pthread_mutex_t, %struct.dt_pthread_mutex_t, %struct.dt_pthread_mutex_t, %struct.dt_pthread_mutex_t, %struct.dt_pthread_mutex_t, ptr, ptr, ptr, ptr, ptr, ptr, ptr, ptr, ptr, ptr, ptr, ptr, ptr, %struct.dt_lua_state_t, ptr, double, ptr, i32, [47 x i32], i32, i32, ptr, ptr, %struct.dt_sys_resources_t, %struct.dt_backthumb_t, %struct.dt_gimp_t }
%struct.dt_codepath_t = type { i8, [3 x i8] }
%struct.dt_pthread_mutex_t = type { %union.pthread_mutex_t }
%union.pthread_mutex_t = type { %struct.__pthread_mutex_s }
%struct.__pthread_mutex_s = type { i32, i32, i32, i32, i32, i16, i16, %struct.__pthread_internal_list }
%struct.__pthread_internal_list = type { ptr, ptr }
%struct.dt_lua_state_t = type { i32 }
%struct.dt_sys_resources_t = type { i64, i64, ptr, ptr, i32 }
%struct.dt_backthumb_t = type { double, double, i32, i32, i32, i32 }
%struct.dt_gimp_t = type { i32, ptr, ptr, i32, i32 }
%struct._GdkRGBA = type { double, double, double, double }
%struct._GValue = type { i64, [2 x %union.anon] }
%union.anon = type { i64 }
%struct.dt_gui_gtk_t = type { ptr, %struct.dt_gui_widgets_t, %struct.dt_gui_scrollbars_t, i32, ptr, i32, [39 x %struct._GdkRGBA], i32, i32, i32, i32, i32, double, double, double, double, ptr, double, double, double, double, i32, i32, [4096 x i8], i32, i32, i32, %struct.dt_pthread_mutex_t }
%struct.dt_gui_widgets_t = type { ptr, ptr, ptr, ptr, i32, i32, i32 }
%struct.dt_gui_scrollbars_t = type { ptr, ptr, i32 }
%struct._GTypeInstance = type { ptr }
%struct._GTypeClass = type { i64 }

@darktable = external global %struct.darktable_t, align 8
@__const._get_container_row_heigth.separation = private unnamed_addr constant %struct._GValue { i64 24, [2 x %union.anon] zeroinitializer }, align 8
@.str.282 = private unnamed_addr constant [19 x i8] c"vertical-separator\00", align 1
@.str.283 = private unnamed_addr constant [2 x i8] c"X\00", align 1

; Function Attrs: nounwind uwtable
define internal i32 @_get_container_row_heigth(ptr noundef %0) #0 {
  %2 = alloca ptr, align 8
  %3 = alloca i32, align 4
  %4 = alloca ptr, align 8
  %5 = alloca i64, align 8
  %6 = alloca i32, align 4
  %7 = alloca i32, align 4
  %8 = alloca i32, align 4
  %9 = alloca i32, align 4
  %10 = alloca i32, align 4
  %11 = alloca i32, align 4
  %12 = alloca %struct._GValue, align 8
  %13 = alloca ptr, align 8
  %14 = alloca i64, align 8
  %15 = alloca i32, align 4
  %16 = alloca i32, align 4
  %17 = alloca ptr, align 8
  store ptr %0, ptr %2, align 8, !tbaa !6
  call void @llvm.lifetime.start.p0(i64 4, ptr %3) #15
  %18 = load ptr, ptr getelementptr inbounds nuw (%struct.darktable_t, ptr @darktable, i32 0, i32 14), align 8, !tbaa !24
  %19 = getelementptr inbounds nuw %struct.dt_gui_gtk_t, ptr %18, i32 0, i32 18
  %20 = load double, ptr %19, align 8, !tbaa !144
  %21 = fmul reassoc nsz arcp contract afn double 1.000000e+01, %20
  %22 = fptosi double %21 to i32
  store i32 %22, ptr %3, align 4, !tbaa !17
  call void @llvm.lifetime.start.p0(i64 8, ptr %4) #15
  %23 = load ptr, ptr %2, align 8, !tbaa !6
  store ptr %23, ptr %4, align 8, !tbaa !225
  call void @llvm.lifetime.start.p0(i64 8, ptr %5) #15
  %24 = call i64 @gtk_tree_view_get_type() #16
  store i64 %24, ptr %5, align 8, !tbaa !227
  call void @llvm.lifetime.start.p0(i64 4, ptr %6) #15
  %25 = load ptr, ptr %4, align 8, !tbaa !225
  %26 = icmp ne ptr %25, null
  br i1 %26, label %28, label %27

27:                                               ; preds = %1
  store i32 0, ptr %6, align 4, !tbaa !17
  br label %47

28:                                               ; preds = %1
  %29 = load ptr, ptr %4, align 8, !tbaa !225
  %30 = getelementptr inbounds nuw %struct._GTypeInstance, ptr %29, i32 0, i32 0
  %31 = load ptr, ptr %30, align 8, !tbaa !228
  %32 = icmp ne ptr %31, null
  br i1 %32, label %33, label %42

33:                                               ; preds = %28
  %34 = load ptr, ptr %4, align 8, !tbaa !225
  %35 = getelementptr inbounds nuw %struct._GTypeInstance, ptr %34, i32 0, i32 0
  %36 = load ptr, ptr %35, align 8, !tbaa !228
  %37 = getelementptr inbounds nuw %struct._GTypeClass, ptr %36, i32 0, i32 0
  %38 = load i64, ptr %37, align 8, !tbaa !231
  %39 = load i64, ptr %5, align 8, !tbaa !227
  %40 = icmp eq i64 %38, %39
  br i1 %40, label %41, label %42

41:                                               ; preds = %33
  store i32 1, ptr %6, align 4, !tbaa !17
  br label %46

42:                                               ; preds = %33, %28
  %43 = load ptr, ptr %4, align 8, !tbaa !225
  %44 = load i64, ptr %5, align 8, !tbaa !227
  %45 = call i32 @g_type_check_instance_is_a(ptr noundef %43, i64 noundef %44) #18
  store i32 %45, ptr %6, align 4, !tbaa !17
  br label %46

46:                                               ; preds = %42, %41
  br label %47

47:                                               ; preds = %46, %27
  %48 = load i32, ptr %6, align 4, !tbaa !17
  store i32 %48, ptr %7, align 4, !tbaa !17
  call void @llvm.lifetime.end.p0(i64 4, ptr %6) #15
  call void @llvm.lifetime.end.p0(i64 8, ptr %5) #15
  call void @llvm.lifetime.end.p0(i64 8, ptr %4) #15
  %49 = load i32, ptr %7, align 4, !tbaa !17
  %50 = icmp ne i32 %49, 0
  br i1 %50, label %51, label %85

51:                                               ; preds = %47
  call void @llvm.lifetime.start.p0(i64 4, ptr %8) #15
  store i32 0, ptr %8, align 4, !tbaa !17
  call void @llvm.lifetime.start.p0(i64 4, ptr %9) #15
  %52 = load ptr, ptr %2, align 8, !tbaa !6
  %53 = call i64 @gtk_tree_view_get_type() #16
  %54 = call ptr @g_type_check_instance_cast(ptr noundef %52, i64 noundef %53)
  %55 = call i32 @gtk_tree_view_get_n_columns(ptr noundef %54)
  store i32 %55, ptr %9, align 4, !tbaa !17
  call void @llvm.lifetime.start.p0(i64 4, ptr %10) #15
  store i32 0, ptr %10, align 4, !tbaa !17
  br label %56

56:                                               ; preds = %73, %51
  %57 = load i32, ptr %10, align 4, !tbaa !17
  %58 = load i32, ptr %9, align 4, !tbaa !17
  %59 = icmp slt i32 %57, %58
  br i1 %59, label %61, label %60

60:                                               ; preds = %56
  call void @llvm.lifetime.end.p0(i64 4, ptr %10) #15
  br label %76

61:                                               ; preds = %56
  call void @llvm.lifetime.start.p0(i64 4, ptr %11) #15
  store i32 0, ptr %11, align 4, !tbaa !17
  %62 = load ptr, ptr %2, align 8, !tbaa !6
  %63 = call i64 @gtk_tree_view_get_type() #16
  %64 = call ptr @g_type_check_instance_cast(ptr noundef %62, i64 noundef %63)
  %65 = load i32, ptr %10, align 4, !tbaa !17
  %66 = call ptr @gtk_tree_view_get_column(ptr noundef %64, i32 noundef %65)
  call void @gtk_tree_view_column_cell_get_size(ptr noundef %66, ptr noundef null, ptr noundef null, ptr noundef null, ptr noundef null, ptr noundef %11)
  %67 = load i32, ptr %11, align 4, !tbaa !17
  %68 = load i32, ptr %8, align 4, !tbaa !17
  %69 = icmp sgt i32 %67, %68
  br i1 %69, label %70, label %72

70:                                               ; preds = %61
  %71 = load i32, ptr %11, align 4, !tbaa !17
  store i32 %71, ptr %8, align 4, !tbaa !17
  br label %72

72:                                               ; preds = %70, %61
  call void @llvm.lifetime.end.p0(i64 4, ptr %11) #15
  br label %73

73:                                               ; preds = %72
  %74 = load i32, ptr %10, align 4, !tbaa !17
  %75 = add nsw i32 %74, 1
  store i32 %75, ptr %10, align 4, !tbaa !17
  br label %56

76:                                               ; preds = %60
  call void @llvm.lifetime.start.p0(i64 24, ptr %12) #15
  call void @llvm.memcpy.p0.p0.i64(ptr align 8 %12, ptr align 8 @__const._get_container_row_heigth.separation, i64 24, i1 false)
  %77 = load ptr, ptr %2, align 8, !tbaa !6
  call void @gtk_widget_style_get_property(ptr noundef %77, ptr noundef @.str.282, ptr noundef %12)
  %78 = load i32, ptr %8, align 4, !tbaa !17
  %79 = icmp sgt i32 %78, 0
  br i1 %79, label %80, label %84

80:                                               ; preds = %76
  %81 = load i32, ptr %8, align 4, !tbaa !17
  %82 = call i32 @g_value_get_int(ptr noundef %12)
  %83 = add nsw i32 %81, %82
  store i32 %83, ptr %3, align 4, !tbaa !17
  br label %84

84:                                               ; preds = %80, %76
  call void @llvm.lifetime.end.p0(i64 24, ptr %12) #15
  call void @llvm.lifetime.end.p0(i64 4, ptr %9) #15
  call void @llvm.lifetime.end.p0(i64 4, ptr %8) #15
  br label %124

85:                                               ; preds = %47
  call void @llvm.lifetime.start.p0(i64 8, ptr %13) #15
  %86 = load ptr, ptr %2, align 8, !tbaa !6
  store ptr %86, ptr %13, align 8, !tbaa !225
  call void @llvm.lifetime.start.p0(i64 8, ptr %14) #15
  %87 = call i64 @gtk_text_view_get_type() #16
  store i64 %87, ptr %14, align 8, !tbaa !227
  call void @llvm.lifetime.start.p0(i64 4, ptr %15) #15
  %88 = load ptr, ptr %13, align 8, !tbaa !225
  %89 = icmp ne ptr %88, null
  br i1 %89, label %91, label %90

90:                                               ; preds = %85
  store i32 0, ptr %15, align 4, !tbaa !17
  br label %110

91:                                               ; preds = %85
  %92 = load ptr, ptr %13, align 8, !tbaa !225
  %93 = getelementptr inbounds nuw %struct._GTypeInstance, ptr %92, i32 0, i32 0
  %94 = load ptr, ptr %93, align 8, !tbaa !228
  %95 = icmp ne ptr %94, null
  br i1 %95, label %96, label %105

96:                                               ; preds = %91
  %97 = load ptr, ptr %13, align 8, !tbaa !225
  %98 = getelementptr inbounds nuw %struct._GTypeInstance, ptr %97, i32 0, i32 0
  %99 = load ptr, ptr %98, align 8, !tbaa !228
  %100 = getelementptr inbounds nuw %struct._GTypeClass, ptr %99, i32 0, i32 0
  %101 = load i64, ptr %100, align 8, !tbaa !231
  %102 = load i64, ptr %14, align 8, !tbaa !227
  %103 = icmp eq i64 %101, %102
  br i1 %103, label %104, label %105

104:                                              ; preds = %96
  store i32 1, ptr %15, align 4, !tbaa !17
  br label %109

105:                                              ; preds = %96, %91
  %106 = load ptr, ptr %13, align 8, !tbaa !225
  %107 = load i64, ptr %14, align 8, !tbaa !227
  %108 = call i32 @g_type_check_instance_is_a(ptr noundef %106, i64 noundef %107) #18
  store i32 %108, ptr %15, align 4, !tbaa !17
  br label %109

109:                                              ; preds = %105, %104
  br label %110

110:                                              ; preds = %109, %90
  %111 = load i32, ptr %15, align 4, !tbaa !17
  store i32 %111, ptr %16, align 4, !tbaa !17
  call void @llvm.lifetime.end.p0(i64 4, ptr %15) #15
  call void @llvm.lifetime.end.p0(i64 8, ptr %14) #15
  call void @llvm.lifetime.end.p0(i64 8, ptr %13) #15
  %112 = load i32, ptr %16, align 4, !tbaa !17
  %113 = icmp ne i32 %112, 0
  br i1 %113, label %114, label %119

114:                                              ; preds = %110
  call void @llvm.lifetime.start.p0(i64 8, ptr %17) #15
  %115 = load ptr, ptr %2, align 8, !tbaa !6
  %116 = call ptr @gtk_widget_create_pango_layout(ptr noundef %115, ptr noundef @.str.283)
  store ptr %116, ptr %17, align 8, !tbaa !402
  %117 = load ptr, ptr %17, align 8, !tbaa !402
  call void @pango_layout_get_pixel_size(ptr noundef %117, ptr noundef null, ptr noundef %3)
  %118 = load ptr, ptr %17, align 8, !tbaa !402
  call void @g_object_unref(ptr noundef %118)
  call void @llvm.lifetime.end.p0(i64 8, ptr %17) #15
  br label %123

119:                                              ; preds = %110
  %120 = load ptr, ptr %2, align 8, !tbaa !6
  %121 = call i64 @gtk_container_get_type() #16
  %122 = call ptr @g_type_check_instance_cast(ptr noundef %120, i64 noundef %121)
  call void @gtk_container_foreach(ptr noundef %122, ptr noundef @_get_height_if_visible, ptr noundef %3)
  br label %123

123:                                              ; preds = %119, %114
  br label %124

124:                                              ; preds = %123, %84
  %125 = load i32, ptr %3, align 4, !tbaa !17
  call void @llvm.lifetime.end.p0(i64 4, ptr %3) #15
  ret i32 %125
}