; Function Attrs: nounwind uwtable
define internal fastcc i32 @_get_container_row_heigth(ptr noundef %0) unnamed_addr #0 {
  %2 = alloca i32, align 4
  %3 = alloca i32, align 4
  %4 = alloca %struct._GValue, align 8
  call void @llvm.lifetime.start.p0(i64 4, ptr nonnull %2) #18
  %5 = load ptr, ptr getelementptr inbounds nuw (i8, ptr @darktable, i64 104), align 8, !tbaa !15
  %6 = getelementptr inbounds nuw i8, ptr %5, i64 1424
  %7 = load double, ptr %6, align 8, !tbaa !105
  %8 = fmul reassoc nsz arcp contract afn double %7, 1.000000e+01
  %9 = fptosi double %8 to i32
  store i32 %9, ptr %2, align 4, !tbaa !62
  %10 = tail call i64 @gtk_tree_view_get_type() #19
  %.not = icmp eq ptr %0, null
  br i1 %.not, label %.critedge46, label %11

11:                                               ; preds = %1
  %12 = load ptr, ptr %0, align 8, !tbaa !77
  %.not39 = icmp eq ptr %12, null
  br i1 %.not39, label %16, label %13

13:                                               ; preds = %11
  %14 = load i64, ptr %12, align 8, !tbaa !80
  %15 = icmp eq i64 %14, %10
  br i1 %15, label %.critedge44, label %16

16:                                               ; preds = %13, %11
  %17 = tail call i32 @g_type_check_instance_is_a(ptr noundef nonnull %0, i64 noundef %10) #20
  %18 = icmp eq i32 %17, 0
  br i1 %18, label %31, label %.critedge44

.critedge44:                                      ; preds = %13, %16
  %19 = tail call ptr @g_type_check_instance_cast(ptr noundef nonnull %0, i64 noundef %10) #18
  %20 = tail call i32 @gtk_tree_view_get_n_columns(ptr noundef %19) #18
  %21 = icmp sgt i32 %20, 0
  br i1 %21, label %.lr.ph, label %._crit_edge

._crit_edge:                                      ; preds = %.lr.ph, %.critedge44
  %.031.lcssa = phi i32 [ 0, %.critedge44 ], [ %spec.select, %.lr.ph ]
  call void @llvm.lifetime.start.p0(i64 24, ptr nonnull %4) #18
  call void @llvm.memcpy.p0.p0.i64(ptr noundef nonnull align 8 dereferenceable(24) %4, ptr noundef nonnull align 8 dereferenceable(24) @__const._get_container_row_heigth.separation, i64 24, i1 false)
  call void @gtk_widget_style_get_property(ptr noundef nonnull %0, ptr noundef nonnull @.str.282, ptr noundef nonnull %4) #18
  %22 = icmp sgt i32 %.031.lcssa, 0
  br i1 %22, label %27, label %30

.lr.ph:                                           ; preds = %.critedge44, %.lr.ph
  %.03150 = phi i32 [ %spec.select, %.lr.ph ], [ 0, %.critedge44 ]
  %.03349 = phi i32 [ %26, %.lr.ph ], [ 0, %.critedge44 ]
  call void @llvm.lifetime.start.p0(i64 4, ptr nonnull %3) #18
  store i32 0, ptr %3, align 4, !tbaa !62
  %23 = call ptr @g_type_check_instance_cast(ptr noundef nonnull %0, i64 noundef %10) #18
  %24 = call ptr @gtk_tree_view_get_column(ptr noundef %23, i32 noundef %.03349) #18
  call void @gtk_tree_view_column_cell_get_size(ptr noundef %24, ptr noundef null, ptr noundef null, ptr noundef null, ptr noundef null, ptr noundef nonnull %3) #18
  %25 = load i32, ptr %3, align 4, !tbaa !62
  %spec.select = call i32 @llvm.smax.i32(i32 %25, i32 %.03150)
  call void @llvm.lifetime.end.p0(i64 4, ptr nonnull %3) #18
  %26 = add nuw nsw i32 %.03349, 1
  %exitcond.not = icmp eq i32 %26, %20
  br i1 %exitcond.not, label %._crit_edge, label %.lr.ph

27:                                               ; preds = %._crit_edge
  %28 = call i32 @g_value_get_int(ptr noundef nonnull %4) #18
  %29 = add nsw i32 %28, %.031.lcssa
  store i32 %29, ptr %2, align 4, !tbaa !62
  br label %30

30:                                               ; preds = %27, %._crit_edge
  call void @llvm.lifetime.end.p0(i64 24, ptr nonnull %4) #18
  br label %42

31:                                               ; preds = %16
  %32 = tail call i64 @gtk_text_view_get_type() #19
  br i1 %.not39, label %36, label %33

33:                                               ; preds = %31
  %34 = load i64, ptr %12, align 8, !tbaa !80
  %35 = icmp eq i64 %34, %32
  br i1 %35, label %.critedge48, label %36

36:                                               ; preds = %33, %31
  %37 = tail call i32 @g_type_check_instance_is_a(ptr noundef nonnull %0, i64 noundef %32) #20
  %38 = icmp eq i32 %37, 0
  br i1 %38, label %.critedge46, label %.critedge48

.critedge48:                                      ; preds = %33, %36
  %39 = tail call ptr @gtk_widget_create_pango_layout(ptr noundef nonnull %0, ptr noundef nonnull @.str.283) #18
  call void @pango_layout_get_pixel_size(ptr noundef %39, ptr noundef null, ptr noundef nonnull %2) #18
  call void @g_object_unref(ptr noundef %39) #18
  br label %42

.critedge46:                                      ; preds = %1, %36
  %40 = tail call i64 @gtk_container_get_type() #19
  %41 = tail call ptr @g_type_check_instance_cast(ptr noundef %0, i64 noundef %40) #18
  call void @gtk_container_foreach(ptr noundef %41, ptr noundef nonnull @_get_height_if_visible, ptr noundef nonnull %2) #18
  br label %42

42:                                               ; preds = %.critedge48, %.critedge46, %30
  %43 = load i32, ptr %2, align 4, !tbaa !62
  call void @llvm.lifetime.end.p0(i64 4, ptr nonnull %2) #18
  ret i32 %43
}